target datalayout = "e-m:e-p270:32:32-p271:32:32-p272:64:64-i64:64-i128:128-f80:128-n8:16:32:64-S128"
target triple = "x86_64-pc-linux-gnu"

%"class.boost::core::basic_string_view" = type { ptr, i64 }
%"class.boost::urls::url_view_base" = type { [8 x i8], %"struct.boost::urls::detail::url_impl", ptr }
%"struct.boost::urls::detail::url_impl" = type <{ ptr, [8 x i64], [7 x i64], i64, i64, [16 x i8], i16, [2 x i8], i32, i16, i8, [5 x i8] }>

; Function Attrs: mustprogress nounwind uwtable
define linkonce_odr hidden noundef zeroext i1 @_ZNK5boost4core17basic_string_viewIcE5emptyEv(ptr noundef nonnull align 8 dereferenceable(16) %0) #2 comdat align 2 {
  %2 = alloca ptr, align 8
  store ptr %0, ptr %2, align 8, !tbaa !7
  %3 = load ptr, ptr %2, align 8
  %4 = getelementptr inbounds nuw %"class.boost::core::basic_string_view", ptr %3, i32 0, i32 1
  %5 = load i64, ptr %4, align 8, !tbaa !60
  %6 = icmp eq i64 %5, 0
  ret i1 %6
}

; Function Attrs: mustprogress nounwind uwtable
define linkonce_odr hidden noundef zeroext i1 @_ZNK5boost4urls13url_view_base16is_path_absoluteEv(ptr noundef nonnull align 8 dereferenceable(192) %0) #2 comdat align 2 {
  %2 = alloca ptr, align 8
  store ptr %0, ptr %2, align 8, !tbaa !7
  %3 = load ptr, ptr %2, align 8
  %4 = getelementptr inbounds nuw %"class.boost::urls::url_view_base", ptr %3, i32 0, i32 2
  %5 = load ptr, ptr %4, align 8, !tbaa !33
  %6 = call noundef i64 @_ZNK5boost4urls6detail8url_impl3lenEi(ptr noundef nonnull align 8 dereferenceable(171) %5, i32 noundef 4) #9
  %7 = icmp ugt i64 %6, 0
  br i1 %7, label %8, label %20

8:                                                ; preds = %1
  %9 = getelementptr inbounds nuw %"class.boost::urls::url_view_base", ptr %3, i32 0, i32 2
  %10 = load ptr, ptr %9, align 8, !tbaa !33
  %11 = getelementptr inbounds nuw %"struct.boost::urls::detail::url_impl", ptr %10, i32 0, i32 0
  %12 = load ptr, ptr %11, align 8, !tbaa !36
  %13 = getelementptr inbounds nuw %"class.boost::urls::url_view_base", ptr %3, i32 0, i32 2
  %14 = load ptr, ptr %13, align 8, !tbaa !33
  %15 = call noundef i64 @_ZNK5boost4urls6detail8url_impl6offsetEi(ptr noundef nonnull align 8 dereferenceable(171) %14, i32 noundef 4) #9
  %16 = getelementptr inbounds nuw i8, ptr %12, i64 %15
  %17 = load i8, ptr %16, align 1, !tbaa !32
  %18 = sext i8 %17 to i32
  %19 = icmp eq i32 %18, 47
  br label %20

20:                                               ; preds = %8, %1
  %21 = phi i1 [ false, %1 ], [ %19, %8 ]
  ret i1 %21
}

; Function Attrs: mustprogress uwtable
define noundef ptr @_ZN5boost4urls8url_base11resize_implEimRNS1_4op_tE(ptr noundef nonnull align 8 dereferenceable(216) %0, i32 noundef %1, i64 noundef %2, ptr noundef nonnull align 8 dereferenceable(32) %3) #5 align 2 {
  %5 = alloca ptr, align 8
  %6 = alloca i32, align 4
  %7 = alloca i64, align 8
  %8 = alloca ptr, align 8
  store ptr %0, ptr %5, align 8, !tbaa !7
  store i32 %1, ptr %6, align 4, !tbaa !3
  store i64 %2, ptr %7, align 8, !tbaa !21
  store ptr %3, ptr %8, align 8, !tbaa !7
  %9 = load ptr, ptr %5, align 8
  %10 = load i32, ptr %6, align 4, !tbaa !3
  %11 = load i32, ptr %6, align 4, !tbaa !3
  %12 = add nsw i32 %11, 1
  %13 = load i64, ptr %7, align 8, !tbaa !21
  %14 = load ptr, ptr %8, align 8, !tbaa !7
  %15 = call noundef ptr @_ZN5boost4urls8url_base11resize_implEiimRNS1_4op_tE(ptr noundef nonnull align 8 dereferenceable(216) %9, i32 noundef %10, i32 noundef %12, i64 noundef %13, ptr noundef nonnull align 8 dereferenceable(32) %14)
  ret ptr %15
}

; Function Attrs: mustprogress nounwind uwtable
define void @_ZNK5boost4urls8url_base16check_invariantsEv(ptr noundef nonnull align 8 dereferenceable(216) %0) #2 align 2 {
  %2 = alloca ptr, align 8
  store ptr %0, ptr %2, align 8, !tbaa !7
  ret void
}

; Function Attrs: mustprogress uwtable
define noundef ptr @_ZN5boost4urls8url_base13set_user_implEmRNS1_4op_tE(ptr noundef nonnull align 8 dereferenceable(216) %0, i64 noundef %1, ptr noundef nonnull align 8 dereferenceable(32) %2) #5 align 2 {
  %4 = alloca ptr, align 8
  %5 = alloca ptr, align 8
  %6 = alloca i64, align 8
  %7 = alloca ptr, align 8
  %8 = alloca ptr, align 8
  %9 = alloca i8, align 1
  %10 = alloca %"class.boost::core::basic_string_view", align 8
  %11 = alloca ptr, align 8
  store ptr %0, ptr %5, align 8, !tbaa !7
  store i64 %1, ptr %6, align 8, !tbaa !21
  store ptr %2, ptr %7, align 8, !tbaa !7
  %12 = load ptr, ptr %5, align 8
  call void @_ZNK5boost4urls8url_base16check_invariantsEv(ptr noundef nonnull align 8 dereferenceable(216) %12) #9
  %13 = getelementptr inbounds i8, ptr %12, i64 8
  %14 = getelementptr inbounds nuw %"class.boost::urls::url_view_base", ptr %13, i32 0, i32 1
  %15 = call noundef i64 @_ZNK5boost4urls6detail8url_impl3lenEi(ptr noundef nonnull align 8 dereferenceable(171) %14, i32 noundef 1) #9
  %16 = icmp ne i64 %15, 0
  br i1 %16, label %17, label %24

17:                                               ; preds = %3
  call void @llvm.lifetime.start.p0(i64 8, ptr %8) #9
  %18 = load i64, ptr %6, align 8, !tbaa !21
  %19 = add i64 2, %18
  %20 = load ptr, ptr %7, align 8, !tbaa !7
  %21 = call noundef ptr @_ZN5boost4urls8url_base11resize_implEimRNS1_4op_tE(ptr noundef nonnull align 8 dereferenceable(216) %12, i32 noundef 0, i64 noundef %19, ptr noundef nonnull align 8 dereferenceable(32) %20)
  store ptr %21, ptr %8, align 8, !tbaa !7
  call void @_ZNK5boost4urls8url_base16check_invariantsEv(ptr noundef nonnull align 8 dereferenceable(216) %12) #9
  %22 = load ptr, ptr %8, align 8, !tbaa !7
  %23 = getelementptr inbounds i8, ptr %22, i64 2
  store ptr %23, ptr %4, align 8
  call void @llvm.lifetime.end.p0(i64 8, ptr %8) #9
  br label %77

24:                                               ; preds = %3
  call void @llvm.lifetime.start.p0(i64 1, ptr %9) #9
  %25 = getelementptr inbounds i8, ptr %12, i64 8
  %26 = call noundef zeroext i1 @_ZNK5boost4urls13url_view_base16is_path_absoluteEv(ptr noundef nonnull align 8 dereferenceable(192) %25) #9
  call void @llvm.lifetime.start.p0(i64 16, ptr %10) #9
  br i1 %26, label %37, label %27

27:                                               ; preds = %24
  %28 = getelementptr inbounds i8, ptr %12, i64 8
  %29 = getelementptr inbounds nuw %"class.boost::urls::url_view_base", ptr %28, i32 0, i32 1
  %30 = call { ptr, i64 } @_ZNK5boost4urls6detail8url_impl3getEi(ptr noundef nonnull align 8 dereferenceable(171) %29, i32 noundef 4) #9
  %31 = getelementptr inbounds nuw { ptr, i64 }, ptr %10, i32 0, i32 0
  %32 = extractvalue { ptr, i64 } %30, 0
  store ptr %32, ptr %31, align 8
  %33 = getelementptr inbounds nuw { ptr, i64 }, ptr %10, i32 0, i32 1
  %34 = extractvalue { ptr, i64 } %30, 1
  store i64 %34, ptr %33, align 8
  %35 = call noundef zeroext i1 @_ZNK5boost4core17basic_string_viewIcE5emptyEv(ptr noundef nonnull align 8 dereferenceable(16) %10) #9
  %36 = xor i1 %35, true
  br label %37

37:                                               ; preds = %27, %24
  %38 = phi i1 [ false, %24 ], [ %36, %27 ]
  call void @llvm.lifetime.end.p0(i64 16, ptr %10) #9
  %39 = zext i1 %38 to i8
  store i8 %39, ptr %9, align 1, !tbaa !42
  call void @llvm.lifetime.start.p0(i64 8, ptr %11) #9
  %40 = load i64, ptr %6, align 8, !tbaa !21
  %41 = add i64 2, %40
  %42 = add i64 %41, 1
  %43 = load i8, ptr %9, align 1, !tbaa !42, !range !44, !noundef !45
  %44 = trunc i8 %43 to i1
  %45 = zext i1 %44 to i64
  %46 = add i64 %42, %45
  %47 = load ptr, ptr %7, align 8, !tbaa !7
  %48 = call noundef ptr @_ZN5boost4urls8url_base11resize_implEimRNS1_4op_tE(ptr noundef nonnull align 8 dereferenceable(216) %12, i32 noundef 0, i64 noundef %46, ptr noundef nonnull align 8 dereferenceable(32) %47)
  store ptr %48, ptr %11, align 8, !tbaa !7
  %49 = getelementptr inbounds i8, ptr %12, i64 8
  %50 = getelementptr inbounds nuw %"class.boost::urls::url_view_base", ptr %49, i32 0, i32 1
  %51 = load i64, ptr %6, align 8, !tbaa !21
  %52 = add i64 2, %51
  call void @_ZN5boost4urls6detail8url_impl5splitEim(ptr noundef nonnull align 8 dereferenceable(171) %50, i32 noundef 0, i64 noundef %52) #9
  %53 = load ptr, ptr %11, align 8, !tbaa !7
  %54 = getelementptr inbounds i8, ptr %53, i64 0
  store i8 47, ptr %54, align 1, !tbaa !32
  %55 = load ptr, ptr %11, align 8, !tbaa !7
  %56 = getelementptr inbounds i8, ptr %55, i64 1
  store i8 47, ptr %56, align 1, !tbaa !32
  %57 = load ptr, ptr %11, align 8, !tbaa !7
  %58 = load i64, ptr %6, align 8, !tbaa !21
  %59 = add i64 2, %58
  %60 = getelementptr inbounds nuw i8, ptr %57, i64 %59
  store i8 64, ptr %60, align 1, !tbaa !32
  %61 = load i8, ptr %9, align 1, !tbaa !42, !range !44, !noundef !45
  %62 = trunc i8 %61 to i1
  br i1 %62, label %63, label %74

63:                                               ; preds = %37
  %64 = getelementptr inbounds i8, ptr %12, i64 8
  %65 = getelementptr inbounds nuw %"class.boost::urls::url_view_base", ptr %64, i32 0, i32 1
  call void @_ZN5boost4urls6detail8url_impl5splitEim(ptr noundef nonnull align 8 dereferenceable(171) %65, i32 noundef 1, i64 noundef 1) #9
  %66 = getelementptr inbounds i8, ptr %12, i64 8
  %67 = getelementptr inbounds nuw %"class.boost::urls::url_view_base", ptr %66, i32 0, i32 1
  call void @_ZN5boost4urls6detail8url_impl5splitEim(ptr noundef nonnull align 8 dereferenceable(171) %67, i32 noundef 2, i64 noundef 0) #9
  %68 = getelementptr inbounds i8, ptr %12, i64 8
  %69 = getelementptr inbounds nuw %"class.boost::urls::url_view_base", ptr %68, i32 0, i32 1
  call void @_ZN5boost4urls6detail8url_impl5splitEim(ptr noundef nonnull align 8 dereferenceable(171) %69, i32 noundef 3, i64 noundef 0) #9
  %70 = load ptr, ptr %11, align 8, !tbaa !7
  %71 = load i64, ptr %6, align 8, !tbaa !21
  %72 = add i64 3, %71
  %73 = getelementptr inbounds nuw i8, ptr %70, i64 %72
  store i8 47, ptr %73, align 1, !tbaa !32
  br label %74

74:                                               ; preds = %63, %37
  call void @_ZNK5boost4urls8url_base16check_invariantsEv(ptr noundef nonnull align 8 dereferenceable(216) %12) #9
  %75 = load ptr, ptr %11, align 8, !tbaa !7
  %76 = getelementptr inbounds i8, ptr %75, i64 2
  store ptr %76, ptr %4, align 8
  call void @llvm.lifetime.end.p0(i64 8, ptr %11) #9
  call void @llvm.lifetime.end.p0(i64 1, ptr %9) #9
  br label %77

77:                                               ; preds = %74, %17
  %78 = load ptr, ptr %4, align 8
  ret ptr %78
}