; Function Attrs: mustprogress uwtable
define noundef nonnull ptr @_ZN5boost4urls8url_base13set_user_implEmRNS1_4op_tE(ptr noundef nonnull align 8 dereferenceable(216) %0, i64 noundef %1, ptr noundef nonnull align 8 dereferenceable(32) %2) local_unnamed_addr #10 align 2 {
  %4 = getelementptr inbounds i8, ptr %0, i64 16
  %5 = tail call noundef i64 @_ZNK5boost4urls6detail8url_impl3lenEi(ptr noundef nonnull align 8 dereferenceable(171) %4, i32 noundef 1) #30
  %.not = icmp eq i64 %5, 0
  br i1 %.not, label %9, label %6

6:                                                ; preds = %3
  %7 = add i64 %1, 2
  %8 = tail call noundef ptr @_ZN5boost4urls8url_base11resize_implEiimRNS1_4op_tE(ptr noundef nonnull align 8 dereferenceable(216) %0, i32 noundef 0, i32 noundef 1, i64 noundef %7, ptr noundef nonnull align 8 dereferenceable(32) %2)
  br label %34

9:                                                ; preds = %3
  %10 = getelementptr inbounds i8, ptr %0, i64 192
  %11 = load ptr, ptr %10, align 8, !tbaa !24
  %12 = tail call noundef i64 @_ZNK5boost4urls6detail8url_impl3lenEi(ptr noundef nonnull align 8 dereferenceable(171) %11, i32 noundef 4) #30
  %.not.i = icmp eq i64 %12, 0
  br i1 %.not.i, label %_ZNK5boost4urls13url_view_base16is_path_absoluteEv.exit.thread, label %_ZNK5boost4urls13url_view_base16is_path_absoluteEv.exit

_ZNK5boost4urls13url_view_base16is_path_absoluteEv.exit: ; preds = %9
  %13 = load ptr, ptr %10, align 8, !tbaa !24
  %14 = load ptr, ptr %13, align 8, !tbaa !28
  %15 = tail call noundef i64 @_ZNK5boost4urls6detail8url_impl6offsetEi(ptr noundef nonnull align 8 dereferenceable(171) %13, i32 noundef 4) #30
  %16 = getelementptr inbounds nuw i8, ptr %14, i64 %15
  %17 = load i8, ptr %16, align 1, !tbaa !25
  %18 = icmp eq i8 %17, 47
  br i1 %18, label %22, label %_ZNK5boost4urls13url_view_base16is_path_absoluteEv.exit.thread

_ZNK5boost4urls13url_view_base16is_path_absoluteEv.exit.thread: ; preds = %9, %_ZNK5boost4urls13url_view_base16is_path_absoluteEv.exit
  %19 = tail call { ptr, i64 } @_ZNK5boost4urls6detail8url_impl3getEi(ptr noundef nonnull align 8 dereferenceable(171) %4, i32 noundef 4) #30
  %20 = extractvalue { ptr, i64 } %19, 1
  %21 = icmp ne i64 %20, 0
  br label %22

22:                                               ; preds = %_ZNK5boost4urls13url_view_base16is_path_absoluteEv.exit.thread, %_ZNK5boost4urls13url_view_base16is_path_absoluteEv.exit
  %23 = phi i1 [ false, %_ZNK5boost4urls13url_view_base16is_path_absoluteEv.exit ], [ %21, %_ZNK5boost4urls13url_view_base16is_path_absoluteEv.exit.thread ]
  %24 = add i64 %1, 2
  %25 = add i64 %1, 3
  %26 = zext i1 %23 to i64
  %27 = add i64 %25, %26
  %28 = tail call noundef ptr @_ZN5boost4urls8url_base11resize_implEiimRNS1_4op_tE(ptr noundef nonnull align 8 dereferenceable(216) %0, i32 noundef 0, i32 noundef 1, i64 noundef %27, ptr noundef nonnull align 8 dereferenceable(32) %2)
  tail call void @_ZN5boost4urls6detail8url_impl5splitEim(ptr noundef nonnull align 8 dereferenceable(171) %4, i32 noundef 0, i64 noundef %24) #30
  store i8 47, ptr %28, align 1, !tbaa !25
  %29 = getelementptr inbounds i8, ptr %28, i64 1
  store i8 47, ptr %29, align 1, !tbaa !25
  %30 = getelementptr inbounds nuw i8, ptr %28, i64 %24
  store i8 64, ptr %30, align 1, !tbaa !25
  br i1 %23, label %31, label %34

31:                                               ; preds = %22
  tail call void @_ZN5boost4urls6detail8url_impl5splitEim(ptr noundef nonnull align 8 dereferenceable(171) %4, i32 noundef 1, i64 noundef 1) #30
  tail call void @_ZN5boost4urls6detail8url_impl5splitEim(ptr noundef nonnull align 8 dereferenceable(171) %4, i32 noundef 2, i64 noundef 0) #30
  tail call void @_ZN5boost4urls6detail8url_impl5splitEim(ptr noundef nonnull align 8 dereferenceable(171) %4, i32 noundef 3, i64 noundef 0) #30
  %32 = getelementptr i8, ptr %28, i64 %1
  %33 = getelementptr i8, ptr %32, i64 3
  store i8 47, ptr %33, align 1, !tbaa !25
  br label %34

34:                                               ; preds = %22, %31, %6
  %.pn = phi ptr [ %8, %6 ], [ %28, %31 ], [ %28, %22 ]
  %.0 = getelementptr inbounds i8, ptr %.pn, i64 2
  ret ptr %.0
}